; Function Attrs: nounwind uwtable
define void @Ga2_ManComputeTest(ptr noundef %0) local_unnamed_addr #4 {
  %2 = alloca %struct.timespec, align 8
  %3 = alloca %struct.timespec, align 8
  %4 = alloca %struct.timespec, align 8
  call void @llvm.lifetime.start.p0(i64 16, ptr nonnull %4)
  %5 = call i32 @clock_gettime(i32 noundef 1, ptr noundef nonnull %4) #28
  %6 = icmp slt i32 %5, 0
  br i1 %6, label %Abc_Clock.exit, label %7

7:                                                ; preds = %1
  %8 = load i64, ptr %4, align 8
  %9 = mul nsw i64 %8, 1000000
  %10 = getelementptr inbounds nuw i8, ptr %4, i64 8
  %11 = load i64, ptr %10, align 8
  %12 = sdiv i64 %11, 1000
  %13 = add nsw i64 %12, %9
  br label %Abc_Clock.exit

Abc_Clock.exit:                                   ; preds = %1, %7
  %.0.i = phi i64 [ %13, %7 ], [ -1, %1 ]
  call void @llvm.lifetime.end.p0(i64 16, ptr nonnull %4)
  %14 = call i32 @Ga2_ManMarkup(ptr noundef %0, i32 noundef 5, i32 noundef 0)
  call void @llvm.lifetime.start.p0(i64 16, ptr nonnull %3)
  %15 = call i32 @clock_gettime(i32 noundef 1, ptr noundef nonnull %3) #28
  %16 = icmp slt i32 %15, 0
  br i1 %16, label %Abc_Clock.exit17, label %17

17:                                               ; preds = %Abc_Clock.exit
  %18 = load i64, ptr %3, align 8
  %19 = mul nsw i64 %18, 1000000
  %20 = getelementptr inbounds nuw i8, ptr %3, i64 8
  %21 = load i64, ptr %20, align 8
  %22 = sdiv i64 %21, 1000
  %23 = add nsw i64 %22, %19
  br label %Abc_Clock.exit17

Abc_Clock.exit17:                                 ; preds = %Abc_Clock.exit, %17
  %.0.i16 = phi i64 [ %23, %17 ], [ -1, %Abc_Clock.exit ]
  call void @llvm.lifetime.end.p0(i64 16, ptr nonnull %3)
  %24 = sub nsw i64 %.0.i16, %.0.i
  call void (i32, ptr, ...) @Abc_Print(i32 poison, ptr noundef nonnull @.str.10, ptr noundef nonnull @.str)
  %25 = sitofp i64 %24 to double
  %26 = fdiv double %25, 1.000000e+06
  call void (i32, ptr, ...) @Abc_Print(i32 poison, ptr noundef nonnull @.str.78, double noundef %26)
  %27 = getelementptr inbounds nuw i8, ptr %0, i64 24
  %28 = load i32, ptr %27, align 8
  %29 = icmp sgt i32 %28, 0
  br i1 %29, label %.lr.ph, label %.critedge

.lr.ph:                                           ; preds = %Abc_Clock.exit17
  %30 = getelementptr i8, ptr %0, i64 32
  %.val = load ptr, ptr %30, align 8
  %.not = icmp eq ptr %.val, null
  br i1 %.not, label %.critedge, label %.lr.ph.split.preheader

.lr.ph.split.preheader:                           ; preds = %.lr.ph
  %wide.trip.count = zext nneg i32 %28 to i64
  br label %.lr.ph.split

.lr.ph.split:                                     ; preds = %.lr.ph.split.preheader, %.lr.ph.split
  %indvars.iv = phi i64 [ 0, %.lr.ph.split.preheader ], [ %indvars.iv.next, %.lr.ph.split ]
  %.023 = phi i32 [ 0, %.lr.ph.split.preheader ], [ %.1, %.lr.ph.split ]
  %31 = getelementptr inbounds nuw %struct.Gia_Obj_t_, ptr %.val, i64 %indvars.iv
  %.val15 = load i64, ptr %31, align 4
  %32 = and i64 %.val15, 2147483648
  %.not.i = icmp ne i64 %32, 0
  %33 = and i64 %.val15, 536870911
  %34 = icmp eq i64 %33, 536870911
  %narrow.i.not = or i1 %.not.i, %34
  %.val15.lobit = lshr i64 %.val15, 63
  %35 = trunc nuw nsw i64 %.val15.lobit to i32
  %spec.select = select i1 %narrow.i.not, i32 0, i32 %35
  %.1 = add nuw nsw i32 %spec.select, %.023
  %indvars.iv.next = add nuw nsw i64 %indvars.iv, 1
  %exitcond.not = icmp eq i64 %indvars.iv.next, %wide.trip.count
  br i1 %exitcond.not, label %.critedge, label %.lr.ph.split, !llvm.loop !16

.critedge:                                        ; preds = %.lr.ph.split, %.lr.ph, %Abc_Clock.exit17
  %.0.lcssa = phi i32 [ 0, %Abc_Clock.exit17 ], [ 0, %.lr.ph ], [ %.1, %.lr.ph.split ]
  call void (i32, ptr, ...) @Abc_Print(i32 poison, ptr noundef nonnull @.str.1, i32 noundef %.0.lcssa)
  call void @llvm.lifetime.start.p0(i64 16, ptr nonnull %2)
  %36 = call i32 @clock_gettime(i32 noundef 1, ptr noundef nonnull %2) #28
  %37 = icmp slt i32 %36, 0
  br i1 %37, label %Abc_Clock.exit19, label %38

38:                                               ; preds = %.critedge
  %39 = load i64, ptr %2, align 8
  %40 = mul nsw i64 %39, 1000000
  %41 = getelementptr inbounds nuw i8, ptr %2, i64 8
  %42 = load i64, ptr %41, align 8
  %43 = sdiv i64 %42, 1000
  %44 = add nsw i64 %43, %40
  br label %Abc_Clock.exit19

Abc_Clock.exit19:                                 ; preds = %.critedge, %38
  %.0.i18 = phi i64 [ %44, %38 ], [ -1, %.critedge ]
  call void @llvm.lifetime.end.p0(i64 16, ptr nonnull %2)
  %45 = sub nsw i64 %.0.i18, %.0.i
  call void (i32, ptr, ...) @Abc_Print(i32 poison, ptr noundef nonnull @.str.10, ptr noundef nonnull @.str)
  %46 = sitofp i64 %45 to double
  %47 = fdiv double %46, 1.000000e+06
  call void (i32, ptr, ...) @Abc_Print(i32 poison, ptr noundef nonnull @.str.78, double noundef %47)
  ret void
}